; Function Attrs: mustprogress uwtable
define void @_ZN4cvc56parser10SymManager14Implementation5resetEv(ptr noundef nonnull align 8 dereferenceable(584) %this) local_unnamed_addr #3 align 2 {
cond.end:
  tail call void @_ZN4cvc58internal6parser11SymbolTable5resetEv(ptr noundef nonnull align 8 dereferenceable(8) %this)
  %d_context = getelementptr inbounds i8, ptr %this, i64 8
  %call57 = tail call noundef i32 @_ZNK4cvc57context7Context8getLevelEv(ptr noundef nonnull align 8 dereferenceable(48) %d_context)
  %cmp.not8 = icmp eq i32 %call57, 0
  br i1 %cmp.not8, label %while.end, label %while.body

while.body:                                       ; preds = %cond.end, %while.body
  tail call void @_ZN4cvc57context7Context3popEv(ptr noundef nonnull align 8 dereferenceable(48) %d_context)
  %call5 = tail call noundef i32 @_ZNK4cvc57context7Context8getLevelEv(ptr noundef nonnull align 8 dereferenceable(48) %d_context)
  %cmp.not = icmp eq i32 %call5, 0
  br i1 %cmp.not, label %while.end, label %while.body, !llvm.loop !29

while.end:                                        ; preds = %while.body, %cond.end
  tail call void @_ZN4cvc57context7Context4pushEv(ptr noundef nonnull align 8 dereferenceable(48) %d_context)
  ret void
}